; Function Attrs: nounwind uwtable
define internal noundef i32 @mxf_write_s436m_anc_desc(ptr noundef readonly captures(none) %0, ptr noundef readonly captures(none) %1) #0 {
  %3 = tail call fastcc i64 @mxf_write_generic_desc(ptr noundef %0, ptr noundef %1, ptr noundef nonnull @mxf_s436m_anc_descriptor_key)
  %4 = getelementptr inbounds nuw i8, ptr %0, i64 32
  %5 = load ptr, ptr %4, align 8, !tbaa !24
  %6 = tail call i64 @avio_seek(ptr noundef %5, i64 noundef 0, i32 noundef 1) #14
  %7 = sub nsw i64 %6, %3
  %8 = trunc i64 %7 to i32
  %9 = add nsw i64 %3, -4
  %10 = tail call i64 @avio_seek(ptr noundef %5, i64 noundef %9, i32 noundef 0) #14
  tail call void @avio_w8(ptr noundef %5, i32 noundef 131) #14
  tail call void @avio_wb24(ptr noundef %5, i32 noundef %8) #14
  %11 = tail call i64 @avio_seek(ptr noundef %5, i64 noundef %6, i32 noundef 0) #14
  ret i32 0
}